; Function Attrs: mustprogress nounwind willreturn uwtable
define void @_ZN18OpenImageIO_v2_6_010ParamValue11clear_valueEv(ptr nocapture noundef nonnull align 8 dereferenceable(39) %this) local_unnamed_addr #9 align 2 {
entry:
  %m_copy = getelementptr inbounds i8, ptr %this, i64 37
  %0 = load i8, ptr %m_copy, align 1
  %1 = and i8 %0, 1
  %tobool.not = icmp eq i8 %1, 0
  br i1 %tobool.not, label %if.end, label %land.lhs.true

land.lhs.true:                                    ; preds = %entry
  %m_nonlocal = getelementptr inbounds i8, ptr %this, i64 38
  %2 = load i8, ptr %m_nonlocal, align 2
  %3 = and i8 %2, 1
  %tobool2.not = icmp eq i8 %3, 0
  br i1 %tobool2.not, label %if.end, label %land.lhs.true3

land.lhs.true3:                                   ; preds = %land.lhs.true
  %m_data = getelementptr inbounds i8, ptr %this, i64 16
  %4 = load ptr, ptr %m_data, align 8
  %tobool4.not = icmp eq ptr %4, null
  br i1 %tobool4.not, label %if.end, label %if.then

if.then:                                          ; preds = %land.lhs.true3
  tail call void @free(ptr noundef nonnull %4) #24
  br label %if.end

if.end:                                           ; preds = %if.then, %land.lhs.true3, %land.lhs.true, %entry
  %m_data6 = getelementptr inbounds i8, ptr %this, i64 16
  store ptr null, ptr %m_data6, align 8
  store i8 0, ptr %m_copy, align 1
  %m_nonlocal8 = getelementptr inbounds i8, ptr %this, i64 38
  store i8 0, ptr %m_nonlocal8, align 2
  ret void
}